; Function Attrs: mustprogress uwtable
define hidden void @_ZNK6Assimp7Blender9Structure7ConvertINS0_6MTFaceEEEvRT_RKNS0_12FileDatabaseE(ptr noundef nonnull align 8 dereferenceable(120) %0, ptr noundef nonnull align 8 dereferenceable(56) %1, ptr noundef nonnull align 8 dereferenceable(232) %2) local_unnamed_addr #0 align 2 personality ptr @__gxx_personality_v0 {
  %4 = getelementptr inbounds nuw i8, ptr %1, i64 16
  tail call void @_ZNK6Assimp7Blender9Structure15ReadFieldArray2ILi2EfLm4ELm2EEEvRAT1__AT2__T0_PKcRKNS0_12FileDatabaseE(ptr noundef nonnull align 8 dereferenceable(120) %0, ptr noundef nonnull align 4 dereferenceable(32) %4, ptr noundef nonnull @.str.49, ptr noundef nonnull align 8 dereferenceable(232) %2)
  %5 = getelementptr inbounds nuw i8, ptr %1, i64 48
  tail call void @_ZNK6Assimp7Blender9Structure9ReadFieldILi0EcEEvRT0_PKcRKNS0_12FileDatabaseE(ptr noundef nonnull align 8 dereferenceable(120) %0, ptr noundef nonnull align 1 dereferenceable(1) %5, ptr noundef nonnull @.str.51, ptr noundef nonnull align 8 dereferenceable(232) %2)
  %6 = getelementptr inbounds nuw i8, ptr %1, i64 50
  tail call void @_ZNK6Assimp7Blender9Structure9ReadFieldILi0EsEEvRT0_PKcRKNS0_12FileDatabaseE(ptr noundef nonnull align 8 dereferenceable(120) %0, ptr noundef nonnull align 2 dereferenceable(2) %6, ptr noundef nonnull @.str.52, ptr noundef nonnull align 8 dereferenceable(232) %2)
  %7 = getelementptr inbounds nuw i8, ptr %1, i64 52
  tail call void @_ZNK6Assimp7Blender9Structure9ReadFieldILi0EsEEvRT0_PKcRKNS0_12FileDatabaseE(ptr noundef nonnull align 8 dereferenceable(120) %0, ptr noundef nonnull align 2 dereferenceable(2) %7, ptr noundef nonnull @.str.53, ptr noundef nonnull align 8 dereferenceable(232) %2)
  %8 = getelementptr inbounds nuw i8, ptr %1, i64 54
  tail call void @_ZNK6Assimp7Blender9Structure9ReadFieldILi0EsEEvRT0_PKcRKNS0_12FileDatabaseE(ptr noundef nonnull align 8 dereferenceable(120) %0, ptr noundef nonnull align 2 dereferenceable(2) %8, ptr noundef nonnull @.str.54, ptr noundef nonnull align 8 dereferenceable(232) %2)
  %9 = getelementptr inbounds nuw i8, ptr %2, i64 128
  %10 = load ptr, ptr %9, align 8
  %11 = getelementptr inbounds nuw i8, ptr %0, i64 104
  %12 = load i64, ptr %11, align 8
  %13 = getelementptr inbounds nuw i8, ptr %10, i64 24
  %14 = load ptr, ptr %13, align 8
  %15 = getelementptr inbounds i8, ptr %14, i64 %12
  store ptr %15, ptr %13, align 8
  %16 = getelementptr inbounds nuw i8, ptr %10, i64 40
  %17 = load ptr, ptr %16, align 8
  %18 = icmp ugt ptr %15, %17
  br i1 %18, label %19, label %_ZN6Assimp12StreamReaderILb1ELb1EE6IncPtrEl.exit

19:                                               ; preds = %3
  %20 = tail call ptr @__cxa_allocate_exception(i64 16) #23
  invoke void @_ZN17DeadlyImportErrorC2EPKc(ptr noundef nonnull align 8 dereferenceable(16) %20, ptr noundef nonnull @.str.307)
          to label %21 unwind label %22

21:                                               ; preds = %19
  tail call void @__cxa_throw(ptr nonnull %20, ptr nonnull @_ZTI17DeadlyImportError, ptr nonnull @_ZNSt13runtime_errorD2Ev) #24
  unreachable

22:                                               ; preds = %19
  %23 = landingpad { ptr, i32 }
          cleanup
  tail call void @__cxa_free_exception(ptr nonnull %20) #23
  resume { ptr, i32 } %23

_ZN6Assimp12StreamReaderILb1ELb1EE6IncPtrEl.exit: ; preds = %3
  ret void
}